; Function Attrs: nounwind uwtable
define internal void @read_non_rle_pixel(ptr nocapture noundef %0) #0 {
  %2 = getelementptr inbounds i8, ptr %0, i64 108
  %3 = load i32, ptr %2, align 4
  %4 = icmp sgt i32 %3, 0
  br i1 %4, label %.lr.ph, label %._crit_edge

.lr.ph:                                           ; preds = %1
  %5 = getelementptr inbounds i8, ptr %0, i64 24
  %6 = getelementptr inbounds i8, ptr %0, i64 64
  %7 = getelementptr inbounds i8, ptr %0, i64 104
  br label %8

8:                                                ; preds = %.lr.ph, %read_byte.exit
  %indvars.iv = phi i64 [ 0, %.lr.ph ], [ %indvars.iv.next, %read_byte.exit ]
  %9 = load ptr, ptr %5, align 8
  %10 = tail call i32 @getc(ptr noundef %9)
  %11 = icmp eq i32 %10, -1
  br i1 %11, label %12, label %read_byte.exit

12:                                               ; preds = %8
  %13 = load ptr, ptr %6, align 8
  %14 = load ptr, ptr %13, align 8
  %15 = getelementptr inbounds i8, ptr %14, i64 40
  store i32 43, ptr %15, align 8
  %16 = load ptr, ptr %6, align 8
  %17 = load ptr, ptr %16, align 8
  %18 = load ptr, ptr %17, align 8
  tail call void %18(ptr noundef nonnull %16) #3
  br label %read_byte.exit

read_byte.exit:                                   ; preds = %8, %12
  %19 = trunc i32 %10 to i8
  %20 = getelementptr inbounds [4 x i8], ptr %7, i64 0, i64 %indvars.iv
  store i8 %19, ptr %20, align 1
  %indvars.iv.next = add nuw nsw i64 %indvars.iv, 1
  %21 = load i32, ptr %2, align 4
  %22 = sext i32 %21 to i64
  %23 = icmp slt i64 %indvars.iv.next, %22
  br i1 %23, label %8, label %._crit_edge, !llvm.loop !9

._crit_edge:                                      ; preds = %read_byte.exit, %1
  ret void
}